target datalayout = "e-m:e-p270:32:32-p271:32:32-p272:64:64-i64:64-i128:128-f80:128-n8:16:32:64-S128"
target triple = "x86_64-pc-linux-gnu"

%struct.KDF_X942 = type { ptr, %struct.PROV_DIGEST, ptr, i64, ptr, i64, ptr, ptr, ptr, ptr, i64, i64, i64, i64, i64, ptr, i64, i32 }
%struct.PROV_DIGEST = type { ptr, ptr, ptr }

@.str = private unnamed_addr constant [52 x i8] c"../openssl/providers/implementations/kdfs/x942kdf.c\00", align 1

; Function Attrs: nounwind uwtable
define internal void @x942kdf_reset(ptr noundef %0) #0 {
  %2 = alloca ptr, align 8
  %3 = alloca ptr, align 8
  %4 = alloca ptr, align 8
  store ptr %0, ptr %2, align 8, !tbaa !3
  call void @llvm.lifetime.start.p0(i64 8, ptr %3) #6
  %5 = load ptr, ptr %2, align 8, !tbaa !3
  store ptr %5, ptr %3, align 8, !tbaa !3
  call void @llvm.lifetime.start.p0(i64 8, ptr %4) #6
  %6 = load ptr, ptr %3, align 8, !tbaa !3
  %7 = getelementptr inbounds nuw %struct.KDF_X942, ptr %6, i32 0, i32 0
  %8 = load ptr, ptr %7, align 8, !tbaa !7
  store ptr %8, ptr %4, align 8, !tbaa !3
  %9 = load ptr, ptr %3, align 8, !tbaa !3
  %10 = getelementptr inbounds nuw %struct.KDF_X942, ptr %9, i32 0, i32 1
  call void @ossl_prov_digest_reset(ptr noundef %10)
  %11 = load ptr, ptr %3, align 8, !tbaa !3
  %12 = getelementptr inbounds nuw %struct.KDF_X942, ptr %11, i32 0, i32 2
  %13 = load ptr, ptr %12, align 8, !tbaa !16
  %14 = load ptr, ptr %3, align 8, !tbaa !3
  %15 = getelementptr inbounds nuw %struct.KDF_X942, ptr %14, i32 0, i32 3
  %16 = load i64, ptr %15, align 8, !tbaa !17
  call void @CRYPTO_clear_free(ptr noundef %13, i64 noundef %16, ptr noundef @.str, i32 noundef 357)
  %17 = load ptr, ptr %3, align 8, !tbaa !3
  %18 = getelementptr inbounds nuw %struct.KDF_X942, ptr %17, i32 0, i32 4
  %19 = load ptr, ptr %18, align 8, !tbaa !18
  %20 = load ptr, ptr %3, align 8, !tbaa !3
  %21 = getelementptr inbounds nuw %struct.KDF_X942, ptr %20, i32 0, i32 5
  %22 = load i64, ptr %21, align 8, !tbaa !19
  call void @CRYPTO_clear_free(ptr noundef %19, i64 noundef %22, ptr noundef @.str, i32 noundef 358)
  %23 = load ptr, ptr %3, align 8, !tbaa !3
  %24 = getelementptr inbounds nuw %struct.KDF_X942, ptr %23, i32 0, i32 6
  %25 = load ptr, ptr %24, align 8, !tbaa !20
  %26 = load ptr, ptr %3, align 8, !tbaa !3
  %27 = getelementptr inbounds nuw %struct.KDF_X942, ptr %26, i32 0, i32 10
  %28 = load i64, ptr %27, align 8, !tbaa !21
  call void @CRYPTO_clear_free(ptr noundef %25, i64 noundef %28, ptr noundef @.str, i32 noundef 359)
  %29 = load ptr, ptr %3, align 8, !tbaa !3
  %30 = getelementptr inbounds nuw %struct.KDF_X942, ptr %29, i32 0, i32 7
  %31 = load ptr, ptr %30, align 8, !tbaa !22
  %32 = load ptr, ptr %3, align 8, !tbaa !3
  %33 = getelementptr inbounds nuw %struct.KDF_X942, ptr %32, i32 0, i32 11
  %34 = load i64, ptr %33, align 8, !tbaa !23
  call void @CRYPTO_clear_free(ptr noundef %31, i64 noundef %34, ptr noundef @.str, i32 noundef 360)
  %35 = load ptr, ptr %3, align 8, !tbaa !3
  %36 = getelementptr inbounds nuw %struct.KDF_X942, ptr %35, i32 0, i32 8
  %37 = load ptr, ptr %36, align 8, !tbaa !24
  %38 = load ptr, ptr %3, align 8, !tbaa !3
  %39 = getelementptr inbounds nuw %struct.KDF_X942, ptr %38, i32 0, i32 12
  %40 = load i64, ptr %39, align 8, !tbaa !25
  call void @CRYPTO_clear_free(ptr noundef %37, i64 noundef %40, ptr noundef @.str, i32 noundef 361)
  %41 = load ptr, ptr %3, align 8, !tbaa !3
  %42 = getelementptr inbounds nuw %struct.KDF_X942, ptr %41, i32 0, i32 9
  %43 = load ptr, ptr %42, align 8, !tbaa !26
  %44 = load ptr, ptr %3, align 8, !tbaa !3
  %45 = getelementptr inbounds nuw %struct.KDF_X942, ptr %44, i32 0, i32 13
  %46 = load i64, ptr %45, align 8, !tbaa !27
  call void @CRYPTO_clear_free(ptr noundef %43, i64 noundef %46, ptr noundef @.str, i32 noundef 362)
  %47 = load ptr, ptr %3, align 8, !tbaa !3
  call void @llvm.memset.p0.i64(ptr align 8 %47, i8 0, i64 160, i1 false)
  %48 = load ptr, ptr %4, align 8, !tbaa !3
  %49 = load ptr, ptr %3, align 8, !tbaa !3
  %50 = getelementptr inbounds nuw %struct.KDF_X942, ptr %49, i32 0, i32 0
  store ptr %48, ptr %50, align 8, !tbaa !7
  %51 = load ptr, ptr %3, align 8, !tbaa !3
  %52 = getelementptr inbounds nuw %struct.KDF_X942, ptr %51, i32 0, i32 17
  store i32 1, ptr %52, align 8, !tbaa !15
  call void @llvm.lifetime.end.p0(i64 8, ptr %4) #6
  call void @llvm.lifetime.end.p0(i64 8, ptr %3) #6
  ret void
}