; Function Attrs: nounwind uwtable
define internal void @x942kdf_reset(ptr noundef %0) #0 {
  %2 = load ptr, ptr %0, align 8, !tbaa !3
  %3 = getelementptr inbounds nuw i8, ptr %0, i64 8
  tail call void @ossl_prov_digest_reset(ptr noundef nonnull %3) #7
  %4 = getelementptr inbounds nuw i8, ptr %0, i64 32
  %5 = load ptr, ptr %4, align 8, !tbaa !15
  %6 = getelementptr inbounds nuw i8, ptr %0, i64 40
  %7 = load i64, ptr %6, align 8, !tbaa !16
  tail call void @CRYPTO_clear_free(ptr noundef %5, i64 noundef %7, ptr noundef nonnull @.str, i32 noundef 357) #7
  %8 = getelementptr inbounds nuw i8, ptr %0, i64 48
  %9 = load ptr, ptr %8, align 8, !tbaa !17
  %10 = getelementptr inbounds nuw i8, ptr %0, i64 56
  %11 = load i64, ptr %10, align 8, !tbaa !18
  tail call void @CRYPTO_clear_free(ptr noundef %9, i64 noundef %11, ptr noundef nonnull @.str, i32 noundef 358) #7
  %12 = getelementptr inbounds nuw i8, ptr %0, i64 64
  %13 = load ptr, ptr %12, align 8, !tbaa !19
  %14 = getelementptr inbounds nuw i8, ptr %0, i64 96
  %15 = load i64, ptr %14, align 8, !tbaa !20
  tail call void @CRYPTO_clear_free(ptr noundef %13, i64 noundef %15, ptr noundef nonnull @.str, i32 noundef 359) #7
  %16 = getelementptr inbounds nuw i8, ptr %0, i64 72
  %17 = load ptr, ptr %16, align 8, !tbaa !21
  %18 = getelementptr inbounds nuw i8, ptr %0, i64 104
  %19 = load i64, ptr %18, align 8, !tbaa !22
  tail call void @CRYPTO_clear_free(ptr noundef %17, i64 noundef %19, ptr noundef nonnull @.str, i32 noundef 360) #7
  %20 = getelementptr inbounds nuw i8, ptr %0, i64 80
  %21 = load ptr, ptr %20, align 8, !tbaa !23
  %22 = getelementptr inbounds nuw i8, ptr %0, i64 112
  %23 = load i64, ptr %22, align 8, !tbaa !24
  tail call void @CRYPTO_clear_free(ptr noundef %21, i64 noundef %23, ptr noundef nonnull @.str, i32 noundef 361) #7
  %24 = getelementptr inbounds nuw i8, ptr %0, i64 88
  %25 = load ptr, ptr %24, align 8, !tbaa !25
  %26 = getelementptr inbounds nuw i8, ptr %0, i64 120
  %27 = load i64, ptr %26, align 8, !tbaa !26
  tail call void @CRYPTO_clear_free(ptr noundef %25, i64 noundef %27, ptr noundef nonnull @.str, i32 noundef 362) #7
  %28 = getelementptr inbounds nuw i8, ptr %0, i64 8
  tail call void @llvm.memset.p0.i64(ptr noundef nonnull align 8 dereferenceable(160) %28, i8 0, i64 152, i1 false)
  store ptr %2, ptr %0, align 8, !tbaa !3
  %29 = getelementptr inbounds nuw i8, ptr %0, i64 152
  store i32 1, ptr %29, align 8, !tbaa !14
  ret void
}